; Function Attrs: mustprogress uwtable
define hidden void @_ZN7grobner18unfreeze_equationsEj(ptr noundef nonnull align 8 dereferenceable(228) %this, i32 noundef %old_size) local_unnamed_addr #3 align 2 {
entry:
  %tmp.i = alloca ptr, align 8
  %m_equations_to_unfreeze = getelementptr inbounds i8, ptr %this, i64 152
  %0 = load ptr, ptr %m_equations_to_unfreeze, align 8
  %cmp.i.i = icmp eq ptr %0, null
  br i1 %cmp.i.i, label %_ZN6vectorIPN7grobner8equationELb0EjE3endEv.exit, label %if.end.i.i

if.end.i.i:                                       ; preds = %entry
  %arrayidx.i.i = getelementptr inbounds i8, ptr %0, i64 -4
  %1 = load i32, ptr %arrayidx.i.i, align 4
  %2 = zext i32 %1 to i64
  br label %_ZN6vectorIPN7grobner8equationELb0EjE3endEv.exit

_ZN6vectorIPN7grobner8equationELb0EjE3endEv.exit: ; preds = %entry, %if.end.i.i
  %retval.0.i.i = phi i64 [ %2, %if.end.i.i ], [ 0, %entry ]
  %add.ptr.i = getelementptr inbounds ptr, ptr %0, i64 %retval.0.i.i
  %idx.ext = zext i32 %old_size to i64
  %cmp.not5 = icmp eq i64 %retval.0.i.i, %idx.ext
  br i1 %cmp.not5, label %for.end, label %for.body.lr.ph

for.body.lr.ph:                                   ; preds = %_ZN6vectorIPN7grobner8equationELb0EjE3endEv.exit
  %add.ptr = getelementptr inbounds ptr, ptr %0, i64 %idx.ext
  %m_to_process = getelementptr inbounds i8, ptr %this, i64 128
  br label %for.body

for.body:                                         ; preds = %for.body.lr.ph, %for.body
  %it.06 = phi ptr [ %add.ptr, %for.body.lr.ph ], [ %incdec.ptr, %for.body ]
  %3 = load ptr, ptr %it.06, align 8
  call void @llvm.lifetime.start.p0(i64 8, ptr nonnull %tmp.i)
  store ptr %3, ptr %tmp.i, align 8
  call void @_ZN14core_hashtableI14obj_hash_entryIN7grobner8equationEE12obj_ptr_hashIS2_E6ptr_eqIS2_EE6insertEOPS2_(ptr noundef nonnull align 8 dereferenceable(20) %m_to_process, ptr noundef nonnull align 8 dereferenceable(8) %tmp.i)
  call void @llvm.lifetime.end.p0(i64 8, ptr nonnull %tmp.i)
  %incdec.ptr = getelementptr inbounds i8, ptr %it.06, i64 8
  %cmp.not = icmp eq ptr %incdec.ptr, %add.ptr.i
  br i1 %cmp.not, label %for.end.loopexit, label %for.body, !llvm.loop !9

for.end.loopexit:                                 ; preds = %for.body
  %.pre = load ptr, ptr %m_equations_to_unfreeze, align 8
  br label %for.end

for.end:                                          ; preds = %for.end.loopexit, %_ZN6vectorIPN7grobner8equationELb0EjE3endEv.exit
  %4 = phi ptr [ %.pre, %for.end.loopexit ], [ %0, %_ZN6vectorIPN7grobner8equationELb0EjE3endEv.exit ]
  %tobool.not.i = icmp eq ptr %4, null
  br i1 %tobool.not.i, label %_ZN6vectorIPN7grobner8equationELb0EjE6shrinkEj.exit, label %if.then.i

if.then.i:                                        ; preds = %for.end
  %arrayidx.i = getelementptr inbounds i8, ptr %4, i64 -4
  store i32 %old_size, ptr %arrayidx.i, align 4
  br label %_ZN6vectorIPN7grobner8equationELb0EjE6shrinkEj.exit

_ZN6vectorIPN7grobner8equationELb0EjE6shrinkEj.exit: ; preds = %for.end, %if.then.i
  ret void
}